; Function Attrs: nounwind sspstrong uwtable
define dso_local noundef zeroext i1 @visit_type_BlockdevOptionsRaw_members(ptr noundef %v, ptr noundef %obj, ptr noundef %errp) local_unnamed_addr #0 {
entry:
  %call.i = tail call zeroext i1 @visit_type_BlockdevRef(ptr noundef %v, ptr noundef nonnull @.str.63, ptr noundef %obj, ptr noundef %errp)
  br i1 %call.i, label %if.end, label %return

if.end:                                           ; preds = %entry
  %has_offset = getelementptr inbounds nuw i8, ptr %obj, i64 8
  %call1 = tail call zeroext i1 @visit_optional(ptr noundef %v, ptr noundef nonnull @.str.59, ptr noundef nonnull %has_offset) #5
  br i1 %call1, label %if.then2, label %if.end6

if.then2:                                         ; preds = %if.end
  %offset = getelementptr inbounds nuw i8, ptr %obj, i64 16
  %call3 = tail call zeroext i1 @visit_type_int(ptr noundef %v, ptr noundef nonnull @.str.59, ptr noundef nonnull %offset, ptr noundef %errp) #5
  br i1 %call3, label %if.end6, label %return

if.end6:                                          ; preds = %if.then2, %if.end
  %has_size = getelementptr inbounds nuw i8, ptr %obj, i64 24
  %call7 = tail call zeroext i1 @visit_optional(ptr noundef %v, ptr noundef nonnull @.str.186, ptr noundef nonnull %has_size) #5
  br i1 %call7, label %if.then8, label %if.end12

if.then8:                                         ; preds = %if.end6
  %size = getelementptr inbounds nuw i8, ptr %obj, i64 32
  %call9 = tail call zeroext i1 @visit_type_int(ptr noundef %v, ptr noundef nonnull @.str.186, ptr noundef nonnull %size, ptr noundef %errp) #5
  br i1 %call9, label %if.end12, label %return

if.end12:                                         ; preds = %if.then8, %if.end6
  br label %return

return:                                           ; preds = %if.then8, %if.then2, %entry, %if.end12
  %retval.0 = phi i1 [ true, %if.end12 ], [ false, %entry ], [ false, %if.then2 ], [ false, %if.then8 ]
  ret i1 %retval.0
}